; Function Attrs: mustprogress uwtable
define hidden noundef ptr @_ZN3nla11nex_creator6mk_divERKNS_3nexES3_(ptr noundef nonnull align 8 dereferenceable(176) %this, ptr noundef nonnull align 8 dereferenceable(8) %a, ptr noundef nonnull align 8 dereferenceable(8) %b) local_unnamed_addr #3 align 2 {
entry:
  %vtable.i = load ptr, ptr %b, align 8
  %vfn.i = getelementptr inbounds i8, ptr %vtable.i, i64 8
  %0 = load ptr, ptr %vfn.i, align 8
  %call.i = tail call noundef i32 %0(ptr noundef nonnull align 8 dereferenceable(8) %b)
  %cmp.i = icmp eq i32 %call.i, 1
  br i1 %cmp.i, label %if.then, label %if.end

if.then:                                          ; preds = %entry
  %m_j.i = getelementptr inbounds i8, ptr %b, i64 8
  %1 = load i32, ptr %m_j.i, align 8
  %call4 = tail call noundef ptr @_ZN3nla11nex_creator6mk_divERKNS_3nexEj(ptr noundef nonnull align 8 dereferenceable(176) %this, ptr noundef nonnull align 8 dereferenceable(8) %a, i32 noundef %1)
  br label %return

if.end:                                           ; preds = %entry
  %call6 = tail call noundef ptr @_ZN3nla11nex_creator13mk_div_by_mulERKNS_3nexERKNS_7nex_mulE(ptr noundef nonnull align 8 dereferenceable(176) %this, ptr noundef nonnull align 8 dereferenceable(8) %a, ptr noundef nonnull align 8 dereferenceable(48) %b)
  br label %return

return:                                           ; preds = %if.end, %if.then
  %retval.0 = phi ptr [ %call4, %if.then ], [ %call6, %if.end ]
  ret ptr %retval.0
}